; Function Attrs: mustprogress noreturn uwtable
define dso_local void @_ZN4absl17internal_statusor22ThrowBadStatusOrAccessENS_6StatusE(i64 %status.coerce) local_unnamed_addr #7 personality ptr @__gxx_personality_v0 {
invoke.cont:
  %exception = tail call ptr @__cxa_allocate_exception(i64 56) #13
  store ptr getelementptr inbounds ({ [5 x ptr] }, ptr @_ZTVN4absl17BadStatusOrAccessE, i64 0, i32 0, i64 2), ptr %exception, align 8
  %status_.i = getelementptr inbounds i8, ptr %exception, i64 8
  store i64 %status.coerce, ptr %status_.i, align 8
  %init_what_.i = getelementptr inbounds i8, ptr %exception, i64 16
  store i32 0, ptr %init_what_.i, align 4
  %what_.i = getelementptr inbounds i8, ptr %exception, i64 24
  tail call void @_ZNSt7__cxx1112basic_stringIcSt11char_traitsIcESaIcEEC1Ev(ptr noundef nonnull align 8 dereferenceable(32) %what_.i) #13
  tail call void @__cxa_throw(ptr nonnull %exception, ptr nonnull @_ZTIN4absl17BadStatusOrAccessE, ptr nonnull @_ZN4absl17BadStatusOrAccessD2Ev) #15
  unreachable
}